target datalayout = "e-m:e-p270:32:32-p271:32:32-p272:64:64-i64:64-i128:128-f80:128-n8:16:32:64-S128"
target triple = "x86_64-pc-linux-gnu"

@hf_gsm_a_dtap_gcc_call_ref = internal global i32 0, align 4
@hf_gsm_a_dtap_gcc_call_ref_has_priority = internal global i32 0, align 4
@hf_gsm_a_dtap_gcc_call_priority = internal global i32 0, align 4
@hf_gsm_a_dtap_gcc_spare_1 = internal global i32 0, align 4
@hf_gsm_a_dtap_gcc_spare_4 = internal global i32 0, align 4

; Function Attrs: null_pointer_is_valid sspstrong uwtable
define internal zeroext i16 @de_gcc_call_ref(ptr noundef %0, ptr noundef %1, ptr noundef %2, i32 noundef %3, i32 noundef %4, ptr noundef %5, i32 noundef %6) #1 {
  %8 = alloca ptr, align 8
  %9 = alloca ptr, align 8
  %10 = alloca ptr, align 8
  %11 = alloca i32, align 4
  %12 = alloca i32, align 4
  %13 = alloca ptr, align 8
  %14 = alloca i32, align 4
  %15 = alloca i32, align 4
  %16 = alloca i32, align 4
  store ptr %0, ptr %8, align 8
  store ptr %1, ptr %9, align 8
  store ptr %2, ptr %10, align 8
  store i32 %3, ptr %11, align 4
  store i32 %4, ptr %12, align 4
  store ptr %5, ptr %13, align 8
  store i32 %6, ptr %14, align 4
  call void @llvm.lifetime.start.p0(i64 4, ptr %15) #7
  call void @llvm.lifetime.start.p0(i64 4, ptr %16) #7
  %17 = load i32, ptr %11, align 4
  store i32 %17, ptr %15, align 4
  %18 = load ptr, ptr %8, align 8
  %19 = load i32, ptr %15, align 4
  %20 = call i32 @tvb_get_ntohl(ptr noundef %18, i32 noundef %19)
  store i32 %20, ptr %16, align 4
  %21 = load ptr, ptr %9, align 8
  %22 = load i32, ptr @hf_gsm_a_dtap_gcc_call_ref, align 4
  %23 = load ptr, ptr %8, align 8
  %24 = load i32, ptr %15, align 4
  %25 = call ptr @proto_tree_add_item(ptr noundef %21, i32 noundef %22, ptr noundef %23, i32 noundef %24, i32 noundef 4, i32 noundef 0)
  %26 = load i32, ptr %16, align 4
  %27 = and i32 %26, 16
  %28 = icmp ne i32 %27, 0
  br i1 %28, label %29, label %45

29:                                               ; preds = %7
  %30 = load ptr, ptr %9, align 8
  %31 = load i32, ptr @hf_gsm_a_dtap_gcc_call_ref_has_priority, align 4
  %32 = load ptr, ptr %8, align 8
  %33 = load i32, ptr %15, align 4
  %34 = call ptr @proto_tree_add_item(ptr noundef %30, i32 noundef %31, ptr noundef %32, i32 noundef %33, i32 noundef 4, i32 noundef 0)
  %35 = load ptr, ptr %9, align 8
  %36 = load i32, ptr @hf_gsm_a_dtap_gcc_call_priority, align 4
  %37 = load ptr, ptr %8, align 8
  %38 = load i32, ptr %15, align 4
  %39 = call ptr @proto_tree_add_item(ptr noundef %35, i32 noundef %36, ptr noundef %37, i32 noundef %38, i32 noundef 4, i32 noundef 0)
  %40 = load ptr, ptr %9, align 8
  %41 = load i32, ptr @hf_gsm_a_dtap_gcc_spare_1, align 4
  %42 = load ptr, ptr %8, align 8
  %43 = load i32, ptr %15, align 4
  %44 = call ptr @proto_tree_add_item(ptr noundef %40, i32 noundef %41, ptr noundef %42, i32 noundef %43, i32 noundef 4, i32 noundef 0)
  br label %56

45:                                               ; preds = %7
  %46 = load ptr, ptr %9, align 8
  %47 = load i32, ptr @hf_gsm_a_dtap_gcc_call_ref_has_priority, align 4
  %48 = load ptr, ptr %8, align 8
  %49 = load i32, ptr %15, align 4
  %50 = call ptr @proto_tree_add_item(ptr noundef %46, i32 noundef %47, ptr noundef %48, i32 noundef %49, i32 noundef 4, i32 noundef 0)
  %51 = load ptr, ptr %9, align 8
  %52 = load i32, ptr @hf_gsm_a_dtap_gcc_spare_4, align 4
  %53 = load ptr, ptr %8, align 8
  %54 = load i32, ptr %15, align 4
  %55 = call ptr @proto_tree_add_item(ptr noundef %51, i32 noundef %52, ptr noundef %53, i32 noundef %54, i32 noundef 4, i32 noundef 0)
  br label %56

56:                                               ; preds = %45, %29
  %57 = load i32, ptr %15, align 4
  %58 = add i32 %57, 4
  store i32 %58, ptr %15, align 4
  %59 = load i32, ptr %15, align 4
  %60 = load i32, ptr %11, align 4
  %61 = sub i32 %59, %60
  %62 = trunc i32 %61 to i16
  call void @llvm.lifetime.end.p0(i64 4, ptr %16) #7
  call void @llvm.lifetime.end.p0(i64 4, ptr %15) #7
  ret i16 %62
}