; Function Attrs: null_pointer_is_valid sspstrong uwtable
define internal noundef zeroext i16 @de_gcc_call_ref(ptr noundef %0, ptr noundef %1, ptr readnone captures(none) %2, i32 noundef %3, i32 %4, ptr readnone captures(none) %5, i32 %6) #1 {
  %8 = tail call i32 @tvb_get_ntohl(ptr noundef %0, i32 noundef %3)
  %9 = load i32, ptr @hf_gsm_a_dtap_gcc_call_ref, align 4
  %10 = tail call ptr @proto_tree_add_item(ptr noundef %1, i32 noundef %9, ptr noundef %0, i32 noundef %3, i32 noundef 4, i32 noundef 0)
  %11 = and i32 %8, 16
  %.not = icmp eq i32 %11, 0
  %12 = load i32, ptr @hf_gsm_a_dtap_gcc_call_ref_has_priority, align 4
  %13 = tail call ptr @proto_tree_add_item(ptr noundef %1, i32 noundef %12, ptr noundef %0, i32 noundef %3, i32 noundef 4, i32 noundef 0)
  br i1 %.not, label %17, label %14

14:                                               ; preds = %7
  %15 = load i32, ptr @hf_gsm_a_dtap_gcc_call_priority, align 4
  %16 = tail call ptr @proto_tree_add_item(ptr noundef %1, i32 noundef %15, ptr noundef %0, i32 noundef %3, i32 noundef 4, i32 noundef 0)
  br label %17

17:                                               ; preds = %7, %14
  %hf_gsm_a_dtap_gcc_spare_4.sink = phi ptr [ @hf_gsm_a_dtap_gcc_spare_1, %14 ], [ @hf_gsm_a_dtap_gcc_spare_4, %7 ]
  %18 = load i32, ptr %hf_gsm_a_dtap_gcc_spare_4.sink, align 4
  %19 = tail call ptr @proto_tree_add_item(ptr noundef %1, i32 noundef %18, ptr noundef %0, i32 noundef %3, i32 noundef 4, i32 noundef 0)
  ret i16 4
}